; Function Attrs: nounwind uwtable
define internal ptr @unicode_contains(ptr readnone captures(none) %0, ptr noundef %1) #0 {
  %3 = alloca ptr, align 8
  %4 = alloca ptr, align 8
  call void @llvm.lifetime.start.p0(i64 8, ptr nonnull %3) #4
  call void @llvm.lifetime.start.p0(i64 8, ptr nonnull %4) #4
  %5 = call i32 (ptr, ptr, ...) @PyArg_ParseTuple(ptr noundef %1, ptr noundef nonnull @.str.363, ptr noundef nonnull %3, ptr noundef nonnull %4) #4
  %.not = icmp eq i32 %5, 0
  br i1 %.not, label %29, label %6

6:                                                ; preds = %2
  %7 = load ptr, ptr %3, align 8, !tbaa !8
  %8 = call ptr @Py_GetConstantBorrowed(i32 noundef 0) #4
  %9 = icmp eq ptr %7, %8
  br i1 %9, label %10, label %11

10:                                               ; preds = %6
  store ptr null, ptr %3, align 8, !tbaa !8
  br label %11

11:                                               ; preds = %6, %10
  %12 = load ptr, ptr %4, align 8, !tbaa !8
  %13 = call ptr @Py_GetConstantBorrowed(i32 noundef 0) #4
  %14 = icmp eq ptr %12, %13
  br i1 %14, label %15, label %._crit_edge

._crit_edge:                                      ; preds = %11
  %.pre = load ptr, ptr %4, align 8, !tbaa !8
  br label %16

15:                                               ; preds = %11
  store ptr null, ptr %4, align 8, !tbaa !8
  br label %16

16:                                               ; preds = %._crit_edge, %15
  %17 = phi ptr [ %.pre, %._crit_edge ], [ null, %15 ]
  %18 = load ptr, ptr %3, align 8, !tbaa !8
  %19 = call i32 @PyUnicode_Contains(ptr noundef %18, ptr noundef %17) #4
  %20 = icmp eq i32 %19, -1
  %21 = call ptr @PyErr_Occurred() #4
  %.not5 = icmp eq ptr %21, null
  br i1 %20, label %22, label %24

22:                                               ; preds = %16
  br i1 %.not5, label %23, label %29

23:                                               ; preds = %22
  call void @__assert_fail(ptr noundef nonnull @.str.367, ptr noundef nonnull @.str.360, i32 noundef 1384, ptr noundef nonnull @__PRETTY_FUNCTION__.unicode_contains) #5
  unreachable

24:                                               ; preds = %16
  br i1 %.not5, label %26, label %25

25:                                               ; preds = %24
  call void @__assert_fail(ptr noundef nonnull @.str.368, ptr noundef nonnull @.str.360, i32 noundef 1384, ptr noundef nonnull @__PRETTY_FUNCTION__.unicode_contains) #5
  unreachable

26:                                               ; preds = %24
  %27 = sext i32 %19 to i64
  %28 = call ptr @PyLong_FromLong(i64 noundef %27) #4
  br label %29

29:                                               ; preds = %26, %22, %2
  %.0 = phi ptr [ null, %2 ], [ %28, %26 ], [ null, %22 ]
  call void @llvm.lifetime.end.p0(i64 8, ptr nonnull %4) #4
  call void @llvm.lifetime.end.p0(i64 8, ptr nonnull %3) #4
  ret ptr %.0
}